; Function Attrs: mustprogress uwtable
define hidden void @_ZN4cvc58internal6theory2bv5utils11mkMinSignedEj(ptr dead_on_unwind noalias writable sret(%"class.cvc5::internal::NodeTemplate.0") align 8 %0, i32 noundef %1) local_unnamed_addr #3 personality ptr @__gxx_personality_v0 {
  %3 = alloca %"class.cvc5::internal::BitVector", align 8
  call void @llvm.lifetime.start.p0(i64 24, ptr nonnull %3) #22
  call void @_ZN4cvc58internal9BitVector11mkMinSignedEj(ptr dead_on_unwind nonnull writable sret(%"class.cvc5::internal::BitVector") align 8 %3, i32 noundef %1)
  %4 = invoke noundef ptr @_ZN4cvc58internal11NodeManager9currentNMEv()
          to label %.noexc unwind label %9

.noexc:                                           ; preds = %2
  invoke void @_ZN4cvc58internal11NodeManager7mkConstINS0_9BitVectorEEENS0_12NodeTemplateILb1EEERKT_(ptr dead_on_unwind writable sret(%"class.cvc5::internal::NodeTemplate.0") align 8 %0, ptr noundef nonnull align 8 dereferenceable(3560) %4, ptr noundef nonnull align 8 dereferenceable(24) %3)
          to label %_ZN4cvc58internal6theory2bv5utils7mkConstERKNS0_9BitVectorE.exit unwind label %9

_ZN4cvc58internal6theory2bv5utils7mkConstERKNS0_9BitVectorE.exit: ; preds = %.noexc
  %5 = getelementptr inbounds nuw i8, ptr %3, i64 8
  invoke void @__gmpz_clear(ptr noundef nonnull align 8 dereferenceable(16) %5)
          to label %_ZN4cvc58internal9BitVectorD2Ev.exit unwind label %6

6:                                                ; preds = %_ZN4cvc58internal6theory2bv5utils7mkConstERKNS0_9BitVectorE.exit
  %7 = landingpad { ptr, i32 }
          catch ptr null
  %8 = extractvalue { ptr, i32 } %7, 0
  call void @__clang_call_terminate(ptr %8) #23
  unreachable

_ZN4cvc58internal9BitVectorD2Ev.exit:             ; preds = %_ZN4cvc58internal6theory2bv5utils7mkConstERKNS0_9BitVectorE.exit
  call void @llvm.lifetime.end.p0(i64 24, ptr nonnull %3) #22
  ret void

9:                                                ; preds = %.noexc, %2
  %10 = landingpad { ptr, i32 }
          cleanup
  %11 = getelementptr inbounds nuw i8, ptr %3, i64 8
  invoke void @__gmpz_clear(ptr noundef nonnull align 8 dereferenceable(16) %11)
          to label %_ZN4cvc58internal9BitVectorD2Ev.exit3 unwind label %12

12:                                               ; preds = %9
  %13 = landingpad { ptr, i32 }
          catch ptr null
  %14 = extractvalue { ptr, i32 } %13, 0
  call void @__clang_call_terminate(ptr %14) #23
  unreachable

_ZN4cvc58internal9BitVectorD2Ev.exit3:            ; preds = %9
  call void @llvm.lifetime.end.p0(i64 24, ptr nonnull %3) #22
  resume { ptr, i32 } %10
}